; Function Attrs: mustprogress nofree nounwind willreturn memory(read, argmem: readwrite, inaccessiblemem: none) uwtable
define internal noundef i32 @H5T__ref_mem_isnull(ptr readnone captures(none) %0, ptr noundef readonly captures(none) %1, ptr noundef writeonly captures(none) %2) #5 {
  %4 = alloca [64 x i8], align 16
  call void @llvm.lifetime.start.p0(i64 64, ptr nonnull %4) #11
  call void @llvm.memset.p0.i64(ptr noundef nonnull align 16 dereferenceable(64) %4, i8 0, i64 64, i1 false)
  %5 = load i8, ptr @H5T_init_g, align 1, !tbaa !3, !range !7, !noundef !8
  %6 = trunc nuw i8 %5 to i1
  %7 = load i8, ptr @H5_libterm_g, align 1, !range !7
  %8 = trunc nuw i8 %7 to i1
  %9 = xor i1 %8, true
  %10 = select i1 %6, i1 true, i1 %9
  br i1 %10, label %11, label %14, !prof !9

11:                                               ; preds = %3
  %bcmp = call i32 @bcmp(ptr noundef nonnull dereferenceable(64) %1, ptr noundef nonnull dereferenceable(64) %4, i64 64)
  %12 = icmp eq i32 %bcmp, 0
  %13 = zext i1 %12 to i8
  store i8 %13, ptr %2, align 1, !tbaa !3
  br label %14

14:                                               ; preds = %11, %3
  call void @llvm.lifetime.end.p0(i64 64, ptr nonnull %4) #11
  ret i32 0
}